; Function Attrs: nounwind uwtable
define internal ptr @_hashlib_openssl_sha384(ptr noundef %0, ptr noundef %1, i64 noundef %2, ptr noundef %3) #0 {
  %5 = alloca [2 x ptr], align 16
  call void @llvm.lifetime.start.p0(i64 16, ptr nonnull %5) #9
  %.not = icmp eq ptr %3, null
  br i1 %.not, label %8, label %.thread

.thread:                                          ; preds = %4
  %6 = getelementptr i8, ptr %3, i64 16
  %.val = load i64, ptr %6, align 8, !tbaa !51
  %7 = add i64 %.val, %2
  br label %11

8:                                                ; preds = %4
  %9 = icmp ult i64 %2, 2
  %10 = icmp ne ptr %1, null
  %or.cond5 = and i1 %10, %9
  br i1 %or.cond5, label %.thread43, label %11

11:                                               ; preds = %8, %.thread
  %12 = phi i64 [ %7, %.thread ], [ %2, %8 ]
  %13 = call ptr @_PyArg_UnpackKeywords(ptr noundef %1, i64 noundef %2, ptr noundef null, ptr noundef %3, ptr noundef nonnull @_hashlib_openssl_sha384._parser, i32 noundef 0, i32 noundef 1, i32 noundef 0, i32 noundef 0, ptr noundef nonnull %5) #9
  %.not36 = icmp eq ptr %13, null
  br i1 %.not36, label %25, label %.thread43

.thread43:                                        ; preds = %8, %11
  %14 = phi ptr [ %13, %11 ], [ %1, %8 ]
  %15 = phi i64 [ %12, %11 ], [ %2, %8 ]
  %.not37 = icmp eq i64 %15, 0
  br i1 %.not37, label %.thread45, label %16

16:                                               ; preds = %.thread43
  %17 = load ptr, ptr %14, align 8, !tbaa !23
  %.not38 = icmp ne ptr %17, null
  %18 = icmp eq i64 %15, 1
  %spec.select = and i1 %18, %.not38
  br i1 %spec.select, label %.thread45, label %19

19:                                               ; preds = %16
  %20 = getelementptr i8, ptr %14, i64 8
  %21 = load ptr, ptr %20, align 8, !tbaa !23
  %22 = call i32 @PyObject_IsTrue(ptr noundef %21) #9
  %23 = icmp slt i32 %22, 0
  br i1 %23, label %25, label %.thread45

.thread45:                                        ; preds = %.thread43, %19, %16
  %.02748 = phi ptr [ %17, %19 ], [ %17, %16 ], [ null, %.thread43 ]
  %.0 = phi i32 [ %22, %19 ], [ 1, %16 ], [ 1, %.thread43 ]
  %24 = call fastcc ptr @py_evp_fromname(ptr noundef %0, ptr noundef nonnull @.str.11, ptr noundef %.02748, i32 noundef range(i32 0, -2147483648) %.0)
  br label %25

25:                                               ; preds = %19, %11, %.thread45
  %.029 = phi ptr [ null, %19 ], [ %24, %.thread45 ], [ null, %11 ]
  call void @llvm.lifetime.end.p0(i64 16, ptr nonnull %5) #9
  ret ptr %.029
}